; Function Attrs: mustprogress uwtable
define void @_ZN6icu_756LocaleC2ENS0_11ELocaleTypeE(ptr noundef nonnull align 8 dereferenceable(217) %this, i32 %0) unnamed_addr #1 align 2 personality ptr @__gxx_personality_v0 {
if.then.i:
  store ptr getelementptr inbounds ({ [5 x ptr] }, ptr @_ZTVN6icu_756LocaleE, i64 0, i32 0, i64 2), ptr %this, align 8
  %fullName = getelementptr inbounds i8, ptr %this, i64 40
  %fullNameBuffer = getelementptr inbounds i8, ptr %this, i64 48
  store ptr %fullNameBuffer, ptr %fullName, align 8
  %baseName = getelementptr inbounds i8, ptr %this, i64 208
  store ptr null, ptr %baseName, align 8
  invoke void @uprv_free_75(ptr noundef null)
          to label %if.end.i unwind label %lpad

if.end.i:                                         ; preds = %if.then.i
  %.pre.i = load ptr, ptr %fullName, align 8
  store ptr null, ptr %baseName, align 8
  %cmp9.not.i = icmp eq ptr %.pre.i, %fullNameBuffer
  br i1 %cmp9.not.i, label %invoke.cont, label %if.then10.i

if.then10.i:                                      ; preds = %if.end.i
  invoke void @uprv_free_75(ptr noundef %.pre.i)
          to label %.noexc1 unwind label %lpad

.noexc1:                                          ; preds = %if.then10.i
  store ptr %fullNameBuffer, ptr %fullName, align 8
  br label %invoke.cont

invoke.cont:                                      ; preds = %.noexc1, %if.end.i
  store i8 0, ptr %fullNameBuffer, align 8
  %language.i = getelementptr inbounds i8, ptr %this, i64 8
  store i8 0, ptr %language.i, align 8
  %script.i = getelementptr inbounds i8, ptr %this, i64 20
  store i8 0, ptr %script.i, align 4
  %country.i = getelementptr inbounds i8, ptr %this, i64 26
  store i8 0, ptr %country.i, align 2
  %fIsBogus.i = getelementptr inbounds i8, ptr %this, i64 216
  store i8 1, ptr %fIsBogus.i, align 8
  %variantBegin.i = getelementptr inbounds i8, ptr %this, i64 32
  store i32 0, ptr %variantBegin.i, align 8
  ret void

lpad:                                             ; preds = %if.then10.i, %if.then.i
  %1 = landingpad { ptr, i32 }
          cleanup
  tail call void @_ZN6icu_757UObjectD2Ev(ptr noundef nonnull align 8 dereferenceable(8) %this) #20
  resume { ptr, i32 } %1
}